target datalayout = "e-m:e-p270:32:32-p271:32:32-p272:64:64-i64:64-i128:128-f80:128-n8:16:32:64-S128"
target triple = "x86_64-pc-linux-gnu"

%struct.AVClass = type { ptr, ptr, ptr, i32, i32, i32, i32, ptr, ptr, ptr, ptr, i32 }
%struct.AVOption = type { ptr, ptr, i32, i32, %union.anon, double, double, i32, ptr }
%union.anon = type { i64 }

; Function Attrs: nounwind uwtable
define ptr @av_opt_next(ptr noundef %0, ptr noundef %1) #0 {
  %3 = alloca ptr, align 8
  %4 = alloca ptr, align 8
  %5 = alloca ptr, align 8
  %6 = alloca ptr, align 8
  %7 = alloca i32, align 4
  store ptr %0, ptr %4, align 8, !tbaa !4
  store ptr %1, ptr %5, align 8, !tbaa !8
  call void @llvm.lifetime.start.p0(i64 8, ptr %6) #11
  %8 = load ptr, ptr %4, align 8, !tbaa !4
  %9 = icmp ne ptr %8, null
  br i1 %9, label %11, label %10

10:                                               ; preds = %2
  store ptr null, ptr %3, align 8
  store i32 1, ptr %7, align 4
  br label %49

11:                                               ; preds = %2
  %12 = load ptr, ptr %4, align 8, !tbaa !4
  %13 = load ptr, ptr %12, align 8, !tbaa !10
  store ptr %13, ptr %6, align 8, !tbaa !10
  %14 = load ptr, ptr %5, align 8, !tbaa !8
  %15 = icmp ne ptr %14, null
  br i1 %15, label %36, label %16

16:                                               ; preds = %11
  %17 = load ptr, ptr %6, align 8, !tbaa !10
  %18 = icmp ne ptr %17, null
  br i1 %18, label %19, label %36

19:                                               ; preds = %16
  %20 = load ptr, ptr %6, align 8, !tbaa !10
  %21 = getelementptr inbounds nuw %struct.AVClass, ptr %20, i32 0, i32 2
  %22 = load ptr, ptr %21, align 8, !tbaa !12
  %23 = icmp ne ptr %22, null
  br i1 %23, label %24, label %36

24:                                               ; preds = %19
  %25 = load ptr, ptr %6, align 8, !tbaa !10
  %26 = getelementptr inbounds nuw %struct.AVClass, ptr %25, i32 0, i32 2
  %27 = load ptr, ptr %26, align 8, !tbaa !12
  %28 = getelementptr inbounds %struct.AVOption, ptr %27, i64 0
  %29 = getelementptr inbounds nuw %struct.AVOption, ptr %28, i32 0, i32 0
  %30 = load ptr, ptr %29, align 8, !tbaa !16
  %31 = icmp ne ptr %30, null
  br i1 %31, label %32, label %36

32:                                               ; preds = %24
  %33 = load ptr, ptr %6, align 8, !tbaa !10
  %34 = getelementptr inbounds nuw %struct.AVClass, ptr %33, i32 0, i32 2
  %35 = load ptr, ptr %34, align 8, !tbaa !12
  store ptr %35, ptr %3, align 8
  store i32 1, ptr %7, align 4
  br label %49

36:                                               ; preds = %24, %19, %16, %11
  %37 = load ptr, ptr %5, align 8, !tbaa !8
  %38 = icmp ne ptr %37, null
  br i1 %38, label %39, label %48

39:                                               ; preds = %36
  %40 = load ptr, ptr %5, align 8, !tbaa !8
  %41 = getelementptr inbounds %struct.AVOption, ptr %40, i64 1
  %42 = getelementptr inbounds nuw %struct.AVOption, ptr %41, i32 0, i32 0
  %43 = load ptr, ptr %42, align 8, !tbaa !16
  %44 = icmp ne ptr %43, null
  br i1 %44, label %45, label %48

45:                                               ; preds = %39
  %46 = load ptr, ptr %5, align 8, !tbaa !8
  %47 = getelementptr inbounds nuw %struct.AVOption, ptr %46, i32 1
  store ptr %47, ptr %5, align 8, !tbaa !8
  store ptr %47, ptr %3, align 8
  store i32 1, ptr %7, align 4
  br label %49

48:                                               ; preds = %39, %36
  store ptr null, ptr %3, align 8
  store i32 1, ptr %7, align 4
  br label %49

49:                                               ; preds = %48, %45, %32, %10
  call void @llvm.lifetime.end.p0(i64 8, ptr %6) #11
  %50 = load ptr, ptr %3, align 8
  ret ptr %50
}

; Function Attrs: nounwind uwtable
define ptr @av_opt_child_next(ptr noundef %0, ptr noundef %1) #0 {
  %3 = alloca ptr, align 8
  %4 = alloca ptr, align 8
  %5 = alloca ptr, align 8
  %6 = alloca ptr, align 8
  %7 = alloca i32, align 4
  store ptr %0, ptr %4, align 8, !tbaa !4
  store ptr %1, ptr %5, align 8, !tbaa !4
  call void @llvm.lifetime.start.p0(i64 8, ptr %6) #11
  %8 = load ptr, ptr %4, align 8, !tbaa !4
  %9 = load ptr, ptr %8, align 8, !tbaa !10
  store ptr %9, ptr %6, align 8, !tbaa !10
  %10 = load ptr, ptr %6, align 8, !tbaa !10
  %11 = getelementptr inbounds nuw %struct.AVClass, ptr %10, i32 0, i32 9
  %12 = load ptr, ptr %11, align 8, !tbaa !111
  %13 = icmp ne ptr %12, null
  br i1 %13, label %14, label %21

14:                                               ; preds = %2
  %15 = load ptr, ptr %6, align 8, !tbaa !10
  %16 = getelementptr inbounds nuw %struct.AVClass, ptr %15, i32 0, i32 9
  %17 = load ptr, ptr %16, align 8, !tbaa !111
  %18 = load ptr, ptr %4, align 8, !tbaa !4
  %19 = load ptr, ptr %5, align 8, !tbaa !4
  %20 = call ptr %17(ptr noundef %18, ptr noundef %19)
  store ptr %20, ptr %3, align 8
  store i32 1, ptr %7, align 4
  br label %22

21:                                               ; preds = %2
  store ptr null, ptr %3, align 8
  store i32 1, ptr %7, align 4
  br label %22

22:                                               ; preds = %21, %14
  call void @llvm.lifetime.end.p0(i64 8, ptr %6) #11
  %23 = load ptr, ptr %3, align 8
  ret ptr %23
}

; Function Attrs: nounwind uwtable
define ptr @av_opt_child_class_iterate(ptr noundef %0, ptr noundef %1) #0 {
  %3 = alloca ptr, align 8
  %4 = alloca ptr, align 8
  %5 = alloca ptr, align 8
  store ptr %0, ptr %4, align 8, !tbaa !10
  store ptr %1, ptr %5, align 8, !tbaa !22
  %6 = load ptr, ptr %4, align 8, !tbaa !10
  %7 = getelementptr inbounds nuw %struct.AVClass, ptr %6, i32 0, i32 10
  %8 = load ptr, ptr %7, align 8, !tbaa !110
  %9 = icmp ne ptr %8, null
  br i1 %9, label %10, label %16

10:                                               ; preds = %2
  %11 = load ptr, ptr %4, align 8, !tbaa !10
  %12 = getelementptr inbounds nuw %struct.AVClass, ptr %11, i32 0, i32 10
  %13 = load ptr, ptr %12, align 8, !tbaa !110
  %14 = load ptr, ptr %5, align 8, !tbaa !22
  %15 = call ptr %13(ptr noundef %14)
  store ptr %15, ptr %3, align 8
  br label %17

16:                                               ; preds = %2
  store ptr null, ptr %3, align 8
  br label %17

17:                                               ; preds = %16, %10
  %18 = load ptr, ptr %3, align 8
  ret ptr %18
}

; Function Attrs: nounwind uwtable
define ptr @av_opt_find2(ptr noundef %0, ptr noundef %1, ptr noundef %2, i32 noundef %3, i32 noundef %4, ptr noundef %5) #0 {
  %7 = alloca ptr, align 8
  %8 = alloca ptr, align 8
  %9 = alloca ptr, align 8
  %10 = alloca ptr, align 8
  %11 = alloca i32, align 4
  %12 = alloca i32, align 4
  %13 = alloca ptr, align 8
  %14 = alloca ptr, align 8
  %15 = alloca ptr, align 8
  %16 = alloca i32, align 4
  %17 = alloca ptr, align 8
  %18 = alloca ptr, align 8
  %19 = alloca ptr, align 8
  store ptr %0, ptr %8, align 8, !tbaa !4
  store ptr %1, ptr %9, align 8, !tbaa !19
  store ptr %2, ptr %10, align 8, !tbaa !19
  store i32 %3, ptr %11, align 4, !tbaa !20
  store i32 %4, ptr %12, align 4, !tbaa !20
  store ptr %5, ptr %13, align 8, !tbaa !22
  call void @llvm.lifetime.start.p0(i64 8, ptr %14) #11
  call void @llvm.lifetime.start.p0(i64 8, ptr %15) #11
  store ptr null, ptr %15, align 8, !tbaa !8
  %20 = load ptr, ptr %8, align 8, !tbaa !4
  %21 = icmp ne ptr %20, null
  br i1 %21, label %23, label %22

22:                                               ; preds = %6
  store ptr null, ptr %7, align 8
  store i32 1, ptr %16, align 4
  br label %145

23:                                               ; preds = %6
  %24 = load ptr, ptr %8, align 8, !tbaa !4
  %25 = load ptr, ptr %24, align 8, !tbaa !10
  store ptr %25, ptr %14, align 8, !tbaa !10
  %26 = load ptr, ptr %14, align 8, !tbaa !10
  %27 = icmp ne ptr %26, null
  br i1 %27, label %29, label %28

28:                                               ; preds = %23
  store ptr null, ptr %7, align 8
  store i32 1, ptr %16, align 4
  br label %145

29:                                               ; preds = %23
  %30 = load i32, ptr %12, align 4, !tbaa !20
  %31 = and i32 %30, 1
  %32 = icmp ne i32 %31, 0
  br i1 %32, label %33, label %79

33:                                               ; preds = %29
  %34 = load i32, ptr %12, align 4, !tbaa !20
  %35 = and i32 %34, 2
  %36 = icmp ne i32 %35, 0
  br i1 %36, label %37, label %56

37:                                               ; preds = %33
  call void @llvm.lifetime.start.p0(i64 8, ptr %17) #11
  store ptr null, ptr %17, align 8, !tbaa !4
  call void @llvm.lifetime.start.p0(i64 8, ptr %18) #11
  br label %38

38:                                               ; preds = %51, %37
  %39 = load ptr, ptr %14, align 8, !tbaa !10
  %40 = call ptr @av_opt_child_class_iterate(ptr noundef %39, ptr noundef %17)
  store ptr %40, ptr %18, align 8, !tbaa !10
  %41 = icmp ne ptr %40, null
  br i1 %41, label %42, label %52

42:                                               ; preds = %38
  %43 = load ptr, ptr %9, align 8, !tbaa !19
  %44 = load ptr, ptr %10, align 8, !tbaa !19
  %45 = load i32, ptr %11, align 4, !tbaa !20
  %46 = load i32, ptr %12, align 4, !tbaa !20
  %47 = call ptr @av_opt_find2(ptr noundef %18, ptr noundef %43, ptr noundef %44, i32 noundef %45, i32 noundef %46, ptr noundef null)
  store ptr %47, ptr %15, align 8, !tbaa !8
  %48 = icmp ne ptr %47, null
  br i1 %48, label %49, label %51

49:                                               ; preds = %42
  %50 = load ptr, ptr %15, align 8, !tbaa !8
  store ptr %50, ptr %7, align 8
  store i32 1, ptr %16, align 4
  br label %53

51:                                               ; preds = %42
  br label %38, !llvm.loop !71

52:                                               ; preds = %38
  store i32 0, ptr %16, align 4
  br label %53

53:                                               ; preds = %52, %49
  call void @llvm.lifetime.end.p0(i64 8, ptr %18) #11
  call void @llvm.lifetime.end.p0(i64 8, ptr %17) #11
  %54 = load i32, ptr %16, align 4
  switch i32 %54, label %145 [
    i32 0, label %55
  ]

55:                                               ; preds = %53
  br label %78

56:                                               ; preds = %33
  call void @llvm.lifetime.start.p0(i64 8, ptr %19) #11
  store ptr null, ptr %19, align 8, !tbaa !4
  br label %57

57:                                               ; preds = %73, %56
  %58 = load ptr, ptr %8, align 8, !tbaa !4
  %59 = load ptr, ptr %19, align 8, !tbaa !4
  %60 = call ptr @av_opt_child_next(ptr noundef %58, ptr noundef %59)
  store ptr %60, ptr %19, align 8, !tbaa !4
  %61 = icmp ne ptr %60, null
  br i1 %61, label %62, label %74

62:                                               ; preds = %57
  %63 = load ptr, ptr %19, align 8, !tbaa !4
  %64 = load ptr, ptr %9, align 8, !tbaa !19
  %65 = load ptr, ptr %10, align 8, !tbaa !19
  %66 = load i32, ptr %11, align 4, !tbaa !20
  %67 = load i32, ptr %12, align 4, !tbaa !20
  %68 = load ptr, ptr %13, align 8, !tbaa !22
  %69 = call ptr @av_opt_find2(ptr noundef %63, ptr noundef %64, ptr noundef %65, i32 noundef %66, i32 noundef %67, ptr noundef %68)
  store ptr %69, ptr %15, align 8, !tbaa !8
  %70 = icmp ne ptr %69, null
  br i1 %70, label %71, label %73

71:                                               ; preds = %62
  %72 = load ptr, ptr %15, align 8, !tbaa !8
  store ptr %72, ptr %7, align 8
  store i32 1, ptr %16, align 4
  br label %75

73:                                               ; preds = %62
  br label %57, !llvm.loop !72

74:                                               ; preds = %57
  store i32 0, ptr %16, align 4
  br label %75

75:                                               ; preds = %74, %71
  call void @llvm.lifetime.end.p0(i64 8, ptr %19) #11
  %76 = load i32, ptr %16, align 4
  switch i32 %76, label %145 [
    i32 0, label %77
  ]

77:                                               ; preds = %75
  br label %78

78:                                               ; preds = %77, %55
  br label %79

79:                                               ; preds = %78, %29
  br label %80

80:                                               ; preds = %143, %79
  %81 = load ptr, ptr %8, align 8, !tbaa !4
  %82 = load ptr, ptr %15, align 8, !tbaa !8
  %83 = call ptr @av_opt_next(ptr noundef %81, ptr noundef %82)
  store ptr %83, ptr %15, align 8, !tbaa !8
  %84 = icmp ne ptr %83, null
  br i1 %84, label %85, label %144

85:                                               ; preds = %80
  %86 = load ptr, ptr %15, align 8, !tbaa !8
  %87 = getelementptr inbounds nuw %struct.AVOption, ptr %86, i32 0, i32 0
  %88 = load ptr, ptr %87, align 8, !tbaa !16
  %89 = load ptr, ptr %9, align 8, !tbaa !19
  %90 = call i32 @strcmp(ptr noundef %88, ptr noundef %89) #12
  %91 = icmp ne i32 %90, 0
  br i1 %91, label %143, label %92

92:                                               ; preds = %85
  %93 = load ptr, ptr %15, align 8, !tbaa !8
  %94 = getelementptr inbounds nuw %struct.AVOption, ptr %93, i32 0, i32 7
  %95 = load i32, ptr %94, align 8, !tbaa !26
  %96 = load i32, ptr %11, align 4, !tbaa !20
  %97 = and i32 %95, %96
  %98 = load i32, ptr %11, align 4, !tbaa !20
  %99 = icmp eq i32 %97, %98
  br i1 %99, label %100, label %143

100:                                              ; preds = %92
  %101 = load ptr, ptr %10, align 8, !tbaa !19
  %102 = icmp ne ptr %101, null
  br i1 %102, label %108, label %103

103:                                              ; preds = %100
  %104 = load ptr, ptr %15, align 8, !tbaa !8
  %105 = getelementptr inbounds nuw %struct.AVOption, ptr %104, i32 0, i32 3
  %106 = load i32, ptr %105, align 4, !tbaa !21
  %107 = icmp ne i32 %106, 11
  br i1 %107, label %128, label %108

108:                                              ; preds = %103, %100
  %109 = load ptr, ptr %10, align 8, !tbaa !19
  %110 = icmp ne ptr %109, null
  br i1 %110, label %111, label %143

111:                                              ; preds = %108
  %112 = load ptr, ptr %15, align 8, !tbaa !8
  %113 = getelementptr inbounds nuw %struct.AVOption, ptr %112, i32 0, i32 3
  %114 = load i32, ptr %113, align 4, !tbaa !21
  %115 = icmp eq i32 %114, 11
  br i1 %115, label %116, label %143

116:                                              ; preds = %111
  %117 = load ptr, ptr %15, align 8, !tbaa !8
  %118 = getelementptr inbounds nuw %struct.AVOption, ptr %117, i32 0, i32 8
  %119 = load ptr, ptr %118, align 8, !tbaa !52
  %120 = icmp ne ptr %119, null
  br i1 %120, label %121, label %143

121:                                              ; preds = %116
  %122 = load ptr, ptr %15, align 8, !tbaa !8
  %123 = getelementptr inbounds nuw %struct.AVOption, ptr %122, i32 0, i32 8
  %124 = load ptr, ptr %123, align 8, !tbaa !52
  %125 = load ptr, ptr %10, align 8, !tbaa !19
  %126 = call i32 @strcmp(ptr noundef %124, ptr noundef %125) #12
  %127 = icmp ne i32 %126, 0
  br i1 %127, label %143, label %128

128:                                              ; preds = %121, %103
  %129 = load ptr, ptr %13, align 8, !tbaa !22
  %130 = icmp ne ptr %129, null
  br i1 %130, label %131, label %141

131:                                              ; preds = %128
  %132 = load i32, ptr %12, align 4, !tbaa !20
  %133 = and i32 %132, 2
  %134 = icmp ne i32 %133, 0
  br i1 %134, label %138, label %135

135:                                              ; preds = %131
  %136 = load ptr, ptr %8, align 8, !tbaa !4
  %137 = load ptr, ptr %13, align 8, !tbaa !22
  store ptr %136, ptr %137, align 8, !tbaa !4
  br label %140

138:                                              ; preds = %131
  %139 = load ptr, ptr %13, align 8, !tbaa !22
  store ptr null, ptr %139, align 8, !tbaa !4
  br label %140

140:                                              ; preds = %138, %135
  br label %141

141:                                              ; preds = %140, %128
  %142 = load ptr, ptr %15, align 8, !tbaa !8
  store ptr %142, ptr %7, align 8
  store i32 1, ptr %16, align 4
  br label %145

143:                                              ; preds = %121, %116, %111, %108, %92, %85
  br label %80, !llvm.loop !73

144:                                              ; preds = %80
  store ptr null, ptr %7, align 8
  store i32 1, ptr %16, align 4
  br label %145

145:                                              ; preds = %144, %141, %75, %53, %28, %22
  call void @llvm.lifetime.end.p0(i64 8, ptr %15) #11
  call void @llvm.lifetime.end.p0(i64 8, ptr %14) #11
  %146 = load ptr, ptr %7, align 8
  ret ptr %146
}