; Function Attrs: nounwind uwtable
define ptr @av_opt_find2(ptr noundef %0, ptr noundef %1, ptr noundef %2, i32 noundef %3, i32 noundef %4, ptr noundef writeonly captures(address_is_null) %5) local_unnamed_addr #2 {
  %7 = alloca ptr, align 8
  %8 = alloca ptr, align 8
  %.not = icmp eq ptr %0, null
  br i1 %.not, label %av_opt_next.exit, label %9

9:                                                ; preds = %6
  %10 = load ptr, ptr %0, align 8, !tbaa !4
  %.not60 = icmp eq ptr %10, null
  br i1 %.not60, label %av_opt_next.exit, label %11

11:                                               ; preds = %9
  %12 = and i32 %4, 1
  %.not61 = icmp eq i32 %12, 0
  br i1 %.not61, label %.thread89, label %13

13:                                               ; preds = %11
  %14 = and i32 %4, 2
  %.not62 = icmp eq i32 %14, 0
  br i1 %.not62, label %.preheader, label %15

15:                                               ; preds = %13
  call void @llvm.lifetime.start.p0(i64 8, ptr nonnull %7) #18
  store ptr null, ptr %7, align 8, !tbaa !19
  call void @llvm.lifetime.start.p0(i64 8, ptr nonnull %8) #18
  %16 = getelementptr inbounds nuw i8, ptr %10, i64 64
  br label %17

17:                                               ; preds = %20, %15
  %18 = load ptr, ptr %16, align 8, !tbaa !59
  %.not.i = icmp eq ptr %18, null
  br i1 %.not.i, label %.thread, label %av_opt_child_class_iterate.exit

av_opt_child_class_iterate.exit:                  ; preds = %17
  %19 = call ptr %18(ptr noundef nonnull %7) #18
  store ptr %19, ptr %8, align 8, !tbaa !4
  %.not65 = icmp eq ptr %19, null
  br i1 %.not65, label %.thread, label %20

20:                                               ; preds = %av_opt_child_class_iterate.exit
  %21 = call ptr @av_opt_find2(ptr noundef nonnull %8, ptr noundef %1, ptr noundef %2, i32 noundef %3, i32 noundef %4, ptr noundef null)
  %.not66 = icmp eq ptr %21, null
  br i1 %.not66, label %17, label %22, !llvm.loop !60

.thread:                                          ; preds = %av_opt_child_class_iterate.exit, %17
  call void @llvm.lifetime.end.p0(i64 8, ptr nonnull %8) #18
  call void @llvm.lifetime.end.p0(i64 8, ptr nonnull %7) #18
  br label %.thread89

22:                                               ; preds = %20
  call void @llvm.lifetime.end.p0(i64 8, ptr nonnull %8) #18
  call void @llvm.lifetime.end.p0(i64 8, ptr nonnull %7) #18
  br label %av_opt_next.exit

.preheader:                                       ; preds = %13, %27
  %.0 = phi ptr [ %26, %27 ], [ null, %13 ]
  %23 = load ptr, ptr %0, align 8, !tbaa !4
  %24 = getelementptr inbounds nuw i8, ptr %23, i64 56
  %25 = load ptr, ptr %24, align 8, !tbaa !61
  %.not.i75 = icmp eq ptr %25, null
  br i1 %.not.i75, label %.thread89, label %av_opt_child_next.exit

av_opt_child_next.exit:                           ; preds = %.preheader
  %26 = tail call ptr %25(ptr noundef nonnull %0, ptr noundef %.0) #18
  %.not63 = icmp eq ptr %26, null
  br i1 %.not63, label %.thread89, label %27

27:                                               ; preds = %av_opt_child_next.exit
  %28 = tail call ptr @av_opt_find2(ptr noundef nonnull %26, ptr noundef %1, ptr noundef %2, i32 noundef %3, i32 noundef %4, ptr noundef %5)
  %.not64 = icmp eq ptr %28, null
  br i1 %.not64, label %.preheader, label %av_opt_next.exit, !llvm.loop !62

.thread89:                                        ; preds = %.preheader, %av_opt_child_next.exit, %.thread, %11
  %29 = load ptr, ptr %0, align 8, !tbaa !4
  %.fr101 = freeze ptr %29
  %30 = icmp ne ptr %.fr101, null
  %31 = getelementptr inbounds nuw i8, ptr %.fr101, i64 16
  %.not69 = icmp eq ptr %2, null
  br i1 %.not69, label %.thread89.split.us, label %.thread89.split

.thread89.split.us:                               ; preds = %.thread89
  br i1 %30, label %.thread89.split.us.split, label %av_opt_next.exit

.thread89.split.us.split:                         ; preds = %.thread89.split.us, %.thread89.split.us.split.backedge
  %.5.us = phi ptr [ %.0.i78.ph.us, %.thread89.split.us.split.backedge ], [ null, %.thread89.split.us ]
  %32 = icmp eq ptr %.5.us, null
  br i1 %32, label %36, label %33

33:                                               ; preds = %.thread89.split.us.split
  %34 = getelementptr inbounds nuw i8, ptr %.5.us, i64 64
  %35 = load ptr, ptr %34, align 8, !tbaa !14
  %.not19.i.us = icmp eq ptr %35, null
  br i1 %.not19.i.us, label %av_opt_next.exit, label %40

36:                                               ; preds = %.thread89.split.us.split
  %37 = load ptr, ptr %31, align 8, !tbaa !9
  %.not16.i.us = icmp eq ptr %37, null
  br i1 %.not16.i.us, label %av_opt_next.exit, label %38

38:                                               ; preds = %36
  %39 = load ptr, ptr %37, align 8, !tbaa !14
  %.not17.i.us = icmp eq ptr %39, null
  br i1 %.not17.i.us, label %av_opt_next.exit, label %40

40:                                               ; preds = %38, %33
  %41 = phi ptr [ %35, %33 ], [ %39, %38 ]
  %.0.i78.ph.us = phi ptr [ %34, %33 ], [ %37, %38 ]
  %42 = call i32 @strcmp(ptr noundef nonnull dereferenceable(1) %41, ptr noundef nonnull dereferenceable(1) %1) #19
  %.not68.us = icmp eq i32 %42, 0
  br i1 %.not68.us, label %43, label %.thread89.split.us.split.backedge

43:                                               ; preds = %40
  %44 = getelementptr inbounds nuw i8, ptr %.0.i78.ph.us, i64 48
  %45 = load i32, ptr %44, align 8, !tbaa !21
  %46 = and i32 %45, %3
  %47 = icmp eq i32 %46, %3
  br i1 %47, label %48, label %.thread89.split.us.split.backedge

48:                                               ; preds = %43
  %49 = getelementptr inbounds nuw i8, ptr %.0.i78.ph.us, i64 20
  %50 = load i32, ptr %49, align 4, !tbaa !18
  %.not70.us = icmp eq i32 %50, 11
  br i1 %.not70.us, label %.thread89.split.us.split.backedge, label %.split.us

.thread89.split.us.split.backedge:                ; preds = %48, %43, %40
  br label %.thread89.split.us.split, !llvm.loop !63

.thread89.split:                                  ; preds = %.thread89, %.thread89.split.backedge
  %.5 = phi ptr [ %.0.i78.ph, %.thread89.split.backedge ], [ null, %.thread89 ]
  %51 = icmp eq ptr %.5, null
  %or.cond.i = and i1 %51, %30
  br i1 %or.cond.i, label %52, label %56

52:                                               ; preds = %.thread89.split
  %53 = load ptr, ptr %31, align 8, !tbaa !9
  %.not16.i = icmp eq ptr %53, null
  br i1 %.not16.i, label %av_opt_next.exit, label %54

54:                                               ; preds = %52
  %55 = load ptr, ptr %53, align 8, !tbaa !14
  %.not17.i = icmp eq ptr %55, null
  br i1 %.not17.i, label %av_opt_next.exit, label %60

56:                                               ; preds = %.thread89.split
  br i1 %51, label %av_opt_next.exit, label %57

57:                                               ; preds = %56
  %58 = getelementptr inbounds nuw i8, ptr %.5, i64 64
  %59 = load ptr, ptr %58, align 8, !tbaa !14
  %.not19.i = icmp eq ptr %59, null
  br i1 %.not19.i, label %av_opt_next.exit, label %60

60:                                               ; preds = %54, %57
  %61 = phi ptr [ %59, %57 ], [ %55, %54 ]
  %.0.i78.ph = phi ptr [ %58, %57 ], [ %53, %54 ]
  %62 = call i32 @strcmp(ptr noundef nonnull dereferenceable(1) %61, ptr noundef nonnull dereferenceable(1) %1) #19
  %.not68 = icmp eq i32 %62, 0
  br i1 %.not68, label %63, label %.thread89.split.backedge

63:                                               ; preds = %60
  %64 = getelementptr inbounds nuw i8, ptr %.0.i78.ph, i64 48
  %65 = load i32, ptr %64, align 8, !tbaa !21
  %66 = and i32 %65, %3
  %67 = icmp eq i32 %66, %3
  br i1 %67, label %.critedge, label %.thread89.split.backedge

.critedge:                                        ; preds = %63
  %68 = getelementptr inbounds nuw i8, ptr %.0.i78.ph, i64 20
  %69 = load i32, ptr %68, align 4, !tbaa !18
  %70 = icmp eq i32 %69, 11
  br i1 %70, label %71, label %.thread89.split.backedge

71:                                               ; preds = %.critedge
  %72 = getelementptr inbounds nuw i8, ptr %.0.i78.ph, i64 56
  %73 = load ptr, ptr %72, align 8, !tbaa !48
  %.not71 = icmp eq ptr %73, null
  br i1 %.not71, label %.thread89.split.backedge, label %74

74:                                               ; preds = %71
  %75 = call i32 @strcmp(ptr noundef nonnull dereferenceable(1) %73, ptr noundef nonnull dereferenceable(1) %2) #19
  %.not72 = icmp eq i32 %75, 0
  br i1 %.not72, label %.split.us, label %.thread89.split.backedge

.thread89.split.backedge:                         ; preds = %74, %71, %.critedge, %63, %60
  br label %.thread89.split, !llvm.loop !63

.split.us:                                        ; preds = %74, %48
  %.us-phi = phi ptr [ %.0.i78.ph.us, %48 ], [ %.0.i78.ph, %74 ]
  %.not73 = icmp eq ptr %5, null
  br i1 %.not73, label %av_opt_next.exit, label %76

76:                                               ; preds = %.split.us
  %77 = and i32 %4, 2
  %.not74 = icmp eq i32 %77, 0
  br i1 %.not74, label %78, label %79

78:                                               ; preds = %76
  store ptr %0, ptr %5, align 8, !tbaa !19
  br label %av_opt_next.exit

79:                                               ; preds = %76
  store ptr null, ptr %5, align 8, !tbaa !19
  br label %av_opt_next.exit

av_opt_next.exit:                                 ; preds = %27, %52, %54, %56, %57, %33, %36, %38, %.thread89.split.us, %22, %.split.us, %79, %78, %9, %6
  %.046 = phi ptr [ %21, %22 ], [ null, %6 ], [ null, %9 ], [ %.us-phi, %78 ], [ %.us-phi, %79 ], [ %.us-phi, %.split.us ], [ null, %.thread89.split.us ], [ null, %38 ], [ null, %36 ], [ null, %33 ], [ null, %57 ], [ null, %56 ], [ null, %54 ], [ null, %52 ], [ %28, %27 ]
  ret ptr %.046
}